; ModuleID = 'bench/linux/original/advise.ll'
source_filename = "bench/linux/original/advise.ll"
target datalayout = "e-m:e-p270:32:32-p271:32:32-p272:64:64-i64:64-i128:128-f80:128-n8:16:32:64-S128"
target triple = "x86_64-unknown-linux-gnu"

%struct.pcpu_hot = type { %union.anon.28 }
%union.anon.28 = type { %struct.anon.29, [16 x i8] }
%struct.anon.29 = type { ptr, i32, i32, i64, i64, ptr, i16, i8 }

@.str = private unnamed_addr constant [18 x i8] c"io_uring/advise.c\00", align 1
@pcpu_hot = external dso_local global %struct.pcpu_hot, section ".data..percpu..shared_aligned", align 64

; Function Attrs: fn_ret_thunk_extern mustprogress nofree norecurse nounwind null_pointer_is_valid willreturn memory(argmem: readwrite, inaccessiblemem: readwrite)
define dso_local noundef i32 @io_madvise_prep(ptr nocapture noundef %0, ptr noundef %1) local_unnamed_addr #0 align 16 {
  %3 = getelementptr inbounds i8, ptr %1, i64 40
  %4 = load i16, ptr %3, align 8
  %5 = icmp eq i16 %4, 0
  br i1 %5, label %6, label %27

6:                                                ; preds = %2
  %7 = getelementptr inbounds i8, ptr %1, i64 8
  %8 = load i64, ptr %7, align 8
  %9 = icmp eq i64 %8, 0
  br i1 %9, label %10, label %27

10:                                               ; preds = %6
  %11 = getelementptr inbounds i8, ptr %1, i64 44
  %12 = load i32, ptr %11, align 4
  %13 = icmp eq i32 %12, 0
  br i1 %13, label %14, label %27

14:                                               ; preds = %10
  %15 = getelementptr inbounds i8, ptr %1, i64 16
  %16 = load volatile i64, ptr %15, align 8
  %17 = getelementptr inbounds i8, ptr %0, i64 8
  store i64 %16, ptr %17, align 8
  %18 = getelementptr inbounds i8, ptr %1, i64 24
  %19 = load volatile i32, ptr %18, align 8
  %20 = getelementptr inbounds i8, ptr %0, i64 16
  store i32 %19, ptr %20, align 8
  %21 = getelementptr inbounds i8, ptr %1, i64 28
  %22 = load volatile i32, ptr %21, align 4
  %23 = getelementptr inbounds i8, ptr %0, i64 20
  store i32 %22, ptr %23, align 4
  %24 = getelementptr inbounds i8, ptr %0, i64 68
  %25 = load i32, ptr %24, align 4
  %26 = or i32 %25, 16
  store i32 %26, ptr %24, align 4
  br label %27

27:                                               ; preds = %14, %10, %6, %2
  %28 = phi i32 [ 0, %14 ], [ -22, %10 ], [ -22, %6 ], [ -22, %2 ]
  ret i32 %28
}

; Function Attrs: fn_ret_thunk_extern nounwind null_pointer_is_valid
define dso_local noundef i32 @io_madvise(ptr nocapture noundef %0, i32 noundef %1) local_unnamed_addr #1 align 16 {
  %3 = icmp sgt i32 %1, -1
  br i1 %3, label %5, label %4, !prof !5

4:                                                ; preds = %2
  tail call void asm sideeffect "685: nop\0A\09.pushsection .discard.instr_begin\0A\09.long 685b - .\0A\09.popsection\0A\09", "i,~{dirflag},~{fpsr},~{flags}"(i32 685) #3, !srcloc !6
  tail call void asm sideeffect "1:\09.byte 0x0f, 0x0b\0A.pushsection __bug_table,\22aw\22\0A2:\09.long 1b - .\09# bug_entry::bug_addr\0A\09.long ${0:c} - .\09# bug_entry::file\0A\09.word ${1:c}\09# bug_entry::line\0A\09.word ${2:c}\09# bug_entry::flags\0A\09.org 2b+${3:c}\0A.popsection\0A998:\0A\09.pushsection .discard.reachable\0A\09.long 998b\0A\09.popsection\0A\09", "i,i,i,i,~{dirflag},~{fpsr},~{flags}"(ptr nonnull @.str, i32 55, i32 2307, i64 12) #3, !srcloc !7
  tail call void asm sideeffect "686: nop\0A\09.pushsection .discard.instr_end\0A\09.long 686b - .\0A\09.popsection\0A\09", "i,~{dirflag},~{fpsr},~{flags}"(i32 686) #3, !srcloc !8
  br label %5

5:                                                ; preds = %4, %2
  %6 = tail call i64 asm "movq %gs:${1:P}, $0", "=r,p,~{dirflag},~{fpsr},~{flags}"(ptr nonnull @pcpu_hot) #4, !srcloc !9
  %7 = inttoptr i64 %6 to ptr
  %8 = getelementptr inbounds i8, ptr %7, i64 1192
  %9 = load ptr, ptr %8, align 8
  %10 = getelementptr inbounds i8, ptr %0, i64 8
  %11 = load i64, ptr %10, align 8
  %12 = getelementptr inbounds i8, ptr %0, i64 16
  %13 = load i32, ptr %12, align 8
  %14 = zext i32 %13 to i64
  %15 = getelementptr inbounds i8, ptr %0, i64 20
  %16 = load i32, ptr %15, align 4
  %17 = tail call i32 @do_madvise(ptr noundef %9, i64 noundef %11, i64 noundef %14, i32 noundef %16) #3
  %18 = getelementptr inbounds i8, ptr %0, i64 80
  store i32 %17, ptr %18, align 8
  %19 = getelementptr inbounds i8, ptr %0, i64 84
  store i32 0, ptr %19, align 4
  ret i32 0
}

; Function Attrs: null_pointer_is_valid
declare dso_local i32 @do_madvise(ptr noundef, i64 noundef, i64 noundef, i32 noundef) local_unnamed_addr #2

; Function Attrs: fn_ret_thunk_extern mustprogress nofree norecurse nounwind null_pointer_is_valid willreturn memory(argmem: readwrite, inaccessiblemem: readwrite)
define dso_local noundef i32 @io_fadvise_prep(ptr nocapture noundef %0, ptr noundef %1) local_unnamed_addr #0 align 16 {
  %3 = getelementptr inbounds i8, ptr %1, i64 40
  %4 = load i16, ptr %3, align 8
  %5 = icmp eq i16 %4, 0
  br i1 %5, label %6, label %29

6:                                                ; preds = %2
  %7 = getelementptr inbounds i8, ptr %1, i64 16
  %8 = load i64, ptr %7, align 8
  %9 = icmp eq i64 %8, 0
  br i1 %9, label %10, label %29

10:                                               ; preds = %6
  %11 = getelementptr inbounds i8, ptr %1, i64 44
  %12 = load i32, ptr %11, align 4
  %13 = icmp eq i32 %12, 0
  br i1 %13, label %14, label %29

14:                                               ; preds = %10
  %15 = getelementptr inbounds i8, ptr %1, i64 8
  %16 = load volatile i64, ptr %15, align 8
  %17 = getelementptr inbounds i8, ptr %0, i64 8
  store i64 %16, ptr %17, align 8
  %18 = getelementptr inbounds i8, ptr %1, i64 24
  %19 = load volatile i32, ptr %18, align 8
  %20 = getelementptr inbounds i8, ptr %0, i64 16
  store i32 %19, ptr %20, align 8
  %21 = getelementptr inbounds i8, ptr %1, i64 28
  %22 = load volatile i32, ptr %21, align 4
  %23 = getelementptr inbounds i8, ptr %0, i64 20
  store i32 %22, ptr %23, align 4
  %24 = icmp ugt i32 %22, 2
  br i1 %24, label %25, label %29

25:                                               ; preds = %14
  %26 = getelementptr inbounds i8, ptr %0, i64 68
  %27 = load i32, ptr %26, align 4
  %28 = or i32 %27, 16
  store i32 %28, ptr %26, align 4
  br label %29

29:                                               ; preds = %25, %14, %10, %6, %2
  %30 = phi i32 [ -22, %10 ], [ -22, %6 ], [ -22, %2 ], [ 0, %25 ], [ 0, %14 ]
  ret i32 %30
}

; Function Attrs: fn_ret_thunk_extern nounwind null_pointer_is_valid
define dso_local noundef i32 @io_fadvise(ptr nocapture noundef %0, i32 noundef %1) local_unnamed_addr #1 align 16 {
  %3 = icmp sgt i32 %1, -1
  br i1 %3, label %9, label %4

4:                                                ; preds = %2
  %5 = getelementptr inbounds i8, ptr %0, i64 20
  %6 = load i32, ptr %5, align 4
  %7 = icmp ugt i32 %6, 2
  br i1 %7, label %8, label %9, !prof !10

8:                                                ; preds = %4
  tail call void asm sideeffect "690: nop\0A\09.pushsection .discard.instr_begin\0A\09.long 690b - .\0A\09.popsection\0A\09", "i,~{dirflag},~{fpsr},~{flags}"(i32 690) #3, !srcloc !11
  tail call void asm sideeffect "1:\09.byte 0x0f, 0x0b\0A.pushsection __bug_table,\22aw\22\0A2:\09.long 1b - .\09# bug_entry::bug_addr\0A\09.long ${0:c} - .\09# bug_entry::file\0A\09.word ${1:c}\09# bug_entry::line\0A\09.word ${2:c}\09# bug_entry::flags\0A\09.org 2b+${3:c}\0A.popsection\0A998:\0A\09.pushsection .discard.reachable\0A\09.long 998b\0A\09.popsection\0A\09", "i,i,i,i,~{dirflag},~{fpsr},~{flags}"(ptr nonnull @.str, i32 97, i32 2307, i64 12) #3, !srcloc !12
  tail call void asm sideeffect "691: nop\0A\09.pushsection .discard.instr_end\0A\09.long 691b - .\0A\09.popsection\0A\09", "i,~{dirflag},~{fpsr},~{flags}"(i32 691) #3, !srcloc !13
  br label %9

9:                                                ; preds = %8, %4, %2
  %10 = load ptr, ptr %0, align 8
  %11 = getelementptr inbounds i8, ptr %0, i64 8
  %12 = load i64, ptr %11, align 8
  %13 = getelementptr inbounds i8, ptr %0, i64 16
  %14 = load i32, ptr %13, align 8
  %15 = zext i32 %14 to i64
  %16 = getelementptr inbounds i8, ptr %0, i64 20
  %17 = load i32, ptr %16, align 4
  %18 = tail call i32 @vfs_fadvise(ptr noundef %10, i64 noundef %12, i64 noundef %15, i32 noundef %17) #3
  %19 = icmp slt i32 %18, 0
  br i1 %19, label %20, label %29

20:                                               ; preds = %9
  %21 = getelementptr inbounds i8, ptr %0, i64 68
  %22 = load i32, ptr %21, align 4
  %23 = or i32 %22, 256
  %24 = and i32 %22, 64
  %25 = icmp eq i32 %24, 0
  %26 = and i32 %23, -4194369
  %27 = or disjoint i32 %26, 4194304
  %28 = select i1 %25, i32 %23, i32 %27
  store i32 %28, ptr %21, align 4
  br label %29

29:                                               ; preds = %20, %9
  %30 = getelementptr inbounds i8, ptr %0, i64 80
  store i32 %18, ptr %30, align 8
  %31 = getelementptr inbounds i8, ptr %0, i64 84
  store i32 0, ptr %31, align 4
  ret i32 0
}

; Function Attrs: null_pointer_is_valid
declare dso_local i32 @vfs_fadvise(ptr noundef, i64 noundef, i64 noundef, i32 noundef) local_unnamed_addr #2


!llvm.module.flags = !{!0, !1, !2, !3, !4}

!0 = !{i32 1, !"wchar_size", i32 2}
!1 = !{i32 8, !"cf-protection-branch", i32 1}
!2 = !{i32 4, !"function_return_thunk_extern", i32 1}
!3 = !{i32 4, !"indirect_branch_cs_prefix", i32 1}
!4 = !{i32 4, !"SkipRaxSetup", i32 1}
!5 = !{!"branch_weights", i32 2000, i32 1}
!6 = !{i64 2156905788, i64 2156905597, i64 2156905649, i64 2156905695, i64 2156905723}
!7 = !{i64 2156905862, i64 2156905891, i64 2156905937, i64 2156905995, i64 2156906049, i64 2156906103, i64 2156906158, i64 2156906189, i64 2156906497, i64 2156906503, i64 2156906550, i64 2156906573, i64 2156906599}
!8 = !{i64 2156907048, i64 2156906859, i64 2156906909, i64 2156906955, i64 2156906983}
!9 = !{i64 2148451629}
!10 = !{!"branch_weights", i32 1, i32 2000}
!11 = !{i64 2156920706, i64 2156920515, i64 2156920567, i64 2156920613, i64 2156920641}
!12 = !{i64 2156920780, i64 2156920809, i64 2156920855, i64 2156920913, i64 2156920967, i64 2156921021, i64 2156921076, i64 2156921107, i64 2156921415, i64 2156921421, i64 2156921468, i64 2156921491, i64 2156921517}
!13 = !{i64 2156921966, i64 2156921777, i64 2156921827, i64 2156921873, i64 2156921901}
